target datalayout = "e-m:e-p270:32:32-p271:32:32-p272:64:64-i64:64-i128:128-f80:128-n8:16:32:64-S128"
target triple = "x86_64-pc-linux-gnu"

%struct.Llb_Mtr_t_ = type { i32, i32, i32, i32, ptr, ptr, ptr, ptr, ptr, ptr, ptr }

; Function Attrs: nounwind uwtable
define void @Llb_MtrFree(ptr noundef %0) #0 {
  %2 = alloca ptr, align 8
  %3 = alloca i32, align 4
  store ptr %0, ptr %2, align 8, !tbaa !3
  call void @llvm.lifetime.start.p0(i64 4, ptr %3) #8
  %4 = load ptr, ptr %2, align 8, !tbaa !3
  %5 = getelementptr inbounds nuw %struct.Llb_Mtr_t_, ptr %4, i32 0, i32 9
  %6 = load ptr, ptr %5, align 8, !tbaa !47
  %7 = icmp ne ptr %6, null
  br i1 %7, label %8, label %14

8:                                                ; preds = %1
  %9 = load ptr, ptr %2, align 8, !tbaa !3
  %10 = getelementptr inbounds nuw %struct.Llb_Mtr_t_, ptr %9, i32 0, i32 9
  %11 = load ptr, ptr %10, align 8, !tbaa !47
  call void @free(ptr noundef %11) #8
  %12 = load ptr, ptr %2, align 8, !tbaa !3
  %13 = getelementptr inbounds nuw %struct.Llb_Mtr_t_, ptr %12, i32 0, i32 9
  store ptr null, ptr %13, align 8, !tbaa !47
  br label %15

14:                                               ; preds = %1
  br label %15

15:                                               ; preds = %14, %8
  %16 = load ptr, ptr %2, align 8, !tbaa !3
  %17 = getelementptr inbounds nuw %struct.Llb_Mtr_t_, ptr %16, i32 0, i32 10
  %18 = load ptr, ptr %17, align 8, !tbaa !48
  %19 = icmp ne ptr %18, null
  br i1 %19, label %20, label %26

20:                                               ; preds = %15
  %21 = load ptr, ptr %2, align 8, !tbaa !3
  %22 = getelementptr inbounds nuw %struct.Llb_Mtr_t_, ptr %21, i32 0, i32 10
  %23 = load ptr, ptr %22, align 8, !tbaa !48
  call void @free(ptr noundef %23) #8
  %24 = load ptr, ptr %2, align 8, !tbaa !3
  %25 = getelementptr inbounds nuw %struct.Llb_Mtr_t_, ptr %24, i32 0, i32 10
  store ptr null, ptr %25, align 8, !tbaa !48
  br label %27

26:                                               ; preds = %15
  br label %27

27:                                               ; preds = %26, %20
  store i32 0, ptr %3, align 4, !tbaa !8
  br label %28

28:                                               ; preds = %59, %27
  %29 = load i32, ptr %3, align 4, !tbaa !8
  %30 = load ptr, ptr %2, align 8, !tbaa !3
  %31 = getelementptr inbounds nuw %struct.Llb_Mtr_t_, ptr %30, i32 0, i32 3
  %32 = load i32, ptr %31, align 4, !tbaa !10
  %33 = icmp slt i32 %29, %32
  br i1 %33, label %34, label %62

34:                                               ; preds = %28
  %35 = load ptr, ptr %2, align 8, !tbaa !3
  %36 = getelementptr inbounds nuw %struct.Llb_Mtr_t_, ptr %35, i32 0, i32 7
  %37 = load ptr, ptr %36, align 8, !tbaa !18
  %38 = load i32, ptr %3, align 4, !tbaa !8
  %39 = sext i32 %38 to i64
  %40 = getelementptr inbounds ptr, ptr %37, i64 %39
  %41 = load ptr, ptr %40, align 8, !tbaa !19
  %42 = icmp ne ptr %41, null
  br i1 %42, label %43, label %57

43:                                               ; preds = %34
  %44 = load ptr, ptr %2, align 8, !tbaa !3
  %45 = getelementptr inbounds nuw %struct.Llb_Mtr_t_, ptr %44, i32 0, i32 7
  %46 = load ptr, ptr %45, align 8, !tbaa !18
  %47 = load i32, ptr %3, align 4, !tbaa !8
  %48 = sext i32 %47 to i64
  %49 = getelementptr inbounds ptr, ptr %46, i64 %48
  %50 = load ptr, ptr %49, align 8, !tbaa !19
  call void @free(ptr noundef %50) #8
  %51 = load ptr, ptr %2, align 8, !tbaa !3
  %52 = getelementptr inbounds nuw %struct.Llb_Mtr_t_, ptr %51, i32 0, i32 7
  %53 = load ptr, ptr %52, align 8, !tbaa !18
  %54 = load i32, ptr %3, align 4, !tbaa !8
  %55 = sext i32 %54 to i64
  %56 = getelementptr inbounds ptr, ptr %53, i64 %55
  store ptr null, ptr %56, align 8, !tbaa !19
  br label %58

57:                                               ; preds = %34
  br label %58

58:                                               ; preds = %57, %43
  br label %59

59:                                               ; preds = %58
  %60 = load i32, ptr %3, align 4, !tbaa !8
  %61 = add nsw i32 %60, 1
  store i32 %61, ptr %3, align 4, !tbaa !8
  br label %28, !llvm.loop !49

62:                                               ; preds = %28
  %63 = load ptr, ptr %2, align 8, !tbaa !3
  %64 = getelementptr inbounds nuw %struct.Llb_Mtr_t_, ptr %63, i32 0, i32 6
  %65 = load ptr, ptr %64, align 8, !tbaa !33
  %66 = icmp ne ptr %65, null
  br i1 %66, label %67, label %73

67:                                               ; preds = %62
  %68 = load ptr, ptr %2, align 8, !tbaa !3
  %69 = getelementptr inbounds nuw %struct.Llb_Mtr_t_, ptr %68, i32 0, i32 6
  %70 = load ptr, ptr %69, align 8, !tbaa !33
  call void @free(ptr noundef %70) #8
  %71 = load ptr, ptr %2, align 8, !tbaa !3
  %72 = getelementptr inbounds nuw %struct.Llb_Mtr_t_, ptr %71, i32 0, i32 6
  store ptr null, ptr %72, align 8, !tbaa !33
  br label %74

73:                                               ; preds = %62
  br label %74

74:                                               ; preds = %73, %67
  %75 = load ptr, ptr %2, align 8, !tbaa !3
  %76 = getelementptr inbounds nuw %struct.Llb_Mtr_t_, ptr %75, i32 0, i32 4
  %77 = load ptr, ptr %76, align 8, !tbaa !44
  %78 = icmp ne ptr %77, null
  br i1 %78, label %79, label %85

79:                                               ; preds = %74
  %80 = load ptr, ptr %2, align 8, !tbaa !3
  %81 = getelementptr inbounds nuw %struct.Llb_Mtr_t_, ptr %80, i32 0, i32 4
  %82 = load ptr, ptr %81, align 8, !tbaa !44
  call void @free(ptr noundef %82) #8
  %83 = load ptr, ptr %2, align 8, !tbaa !3
  %84 = getelementptr inbounds nuw %struct.Llb_Mtr_t_, ptr %83, i32 0, i32 4
  store ptr null, ptr %84, align 8, !tbaa !44
  br label %86

85:                                               ; preds = %74
  br label %86

86:                                               ; preds = %85, %79
  %87 = load ptr, ptr %2, align 8, !tbaa !3
  %88 = getelementptr inbounds nuw %struct.Llb_Mtr_t_, ptr %87, i32 0, i32 7
  %89 = load ptr, ptr %88, align 8, !tbaa !18
  %90 = icmp ne ptr %89, null
  br i1 %90, label %91, label %97

91:                                               ; preds = %86
  %92 = load ptr, ptr %2, align 8, !tbaa !3
  %93 = getelementptr inbounds nuw %struct.Llb_Mtr_t_, ptr %92, i32 0, i32 7
  %94 = load ptr, ptr %93, align 8, !tbaa !18
  call void @free(ptr noundef %94) #8
  %95 = load ptr, ptr %2, align 8, !tbaa !3
  %96 = getelementptr inbounds nuw %struct.Llb_Mtr_t_, ptr %95, i32 0, i32 7
  store ptr null, ptr %96, align 8, !tbaa !18
  br label %98

97:                                               ; preds = %86
  br label %98

98:                                               ; preds = %97, %91
  %99 = load ptr, ptr %2, align 8, !tbaa !3
  %100 = getelementptr inbounds nuw %struct.Llb_Mtr_t_, ptr %99, i32 0, i32 5
  %101 = load ptr, ptr %100, align 8, !tbaa !45
  %102 = icmp ne ptr %101, null
  br i1 %102, label %103, label %109

103:                                              ; preds = %98
  %104 = load ptr, ptr %2, align 8, !tbaa !3
  %105 = getelementptr inbounds nuw %struct.Llb_Mtr_t_, ptr %104, i32 0, i32 5
  %106 = load ptr, ptr %105, align 8, !tbaa !45
  call void @free(ptr noundef %106) #8
  %107 = load ptr, ptr %2, align 8, !tbaa !3
  %108 = getelementptr inbounds nuw %struct.Llb_Mtr_t_, ptr %107, i32 0, i32 5
  store ptr null, ptr %108, align 8, !tbaa !45
  br label %110

109:                                              ; preds = %98
  br label %110

110:                                              ; preds = %109, %103
  %111 = load ptr, ptr %2, align 8, !tbaa !3
  %112 = icmp ne ptr %111, null
  br i1 %112, label %113, label %115

113:                                              ; preds = %110
  %114 = load ptr, ptr %2, align 8, !tbaa !3
  call void @free(ptr noundef %114) #8
  store ptr null, ptr %2, align 8, !tbaa !3
  br label %116

115:                                              ; preds = %110
  br label %116

116:                                              ; preds = %115, %113
  call void @llvm.lifetime.end.p0(i64 4, ptr %3) #8
  ret void
}