; Function Attrs: nounwind uwtable
define void @Llb_MtrFree(ptr noundef captures(none) %0) local_unnamed_addr #6 {
  %2 = getelementptr inbounds nuw i8, ptr %0, i64 56
  %3 = load ptr, ptr %2, align 8, !tbaa !43
  %.not = icmp eq ptr %3, null
  br i1 %.not, label %5, label %4

4:                                                ; preds = %1
  tail call void @free(ptr noundef nonnull %3) #19
  store ptr null, ptr %2, align 8, !tbaa !43
  br label %5

5:                                                ; preds = %1, %4
  %6 = getelementptr inbounds nuw i8, ptr %0, i64 64
  %7 = load ptr, ptr %6, align 8, !tbaa !44
  %.not36 = icmp eq ptr %7, null
  br i1 %.not36, label %9, label %8

8:                                                ; preds = %5
  tail call void @free(ptr noundef nonnull %7) #19
  store ptr null, ptr %6, align 8, !tbaa !44
  br label %9

9:                                                ; preds = %5, %8
  %10 = getelementptr inbounds nuw i8, ptr %0, i64 12
  %11 = load i32, ptr %10, align 4, !tbaa !14
  %12 = icmp sgt i32 %11, 0
  br i1 %12, label %.lr.ph, label %._crit_edge

.lr.ph:                                           ; preds = %9
  %13 = getelementptr inbounds nuw i8, ptr %0, i64 40
  %.pre = load ptr, ptr %13, align 8, !tbaa !19
  br label %14

14:                                               ; preds = %.lr.ph, %22
  %15 = phi i32 [ %11, %.lr.ph ], [ %23, %22 ]
  %16 = phi ptr [ %.pre, %.lr.ph ], [ %24, %22 ]
  %indvars.iv = phi i64 [ 0, %.lr.ph ], [ %indvars.iv.next, %22 ]
  %17 = getelementptr inbounds nuw ptr, ptr %16, i64 %indvars.iv
  %18 = load ptr, ptr %17, align 8, !tbaa !20
  %.not42 = icmp eq ptr %18, null
  br i1 %.not42, label %22, label %19

19:                                               ; preds = %14
  tail call void @free(ptr noundef nonnull %18) #19
  %20 = load ptr, ptr %13, align 8, !tbaa !19
  %21 = getelementptr inbounds nuw ptr, ptr %20, i64 %indvars.iv
  store ptr null, ptr %21, align 8, !tbaa !20
  %.pre45 = load i32, ptr %10, align 4, !tbaa !14
  br label %22

22:                                               ; preds = %19, %14
  %23 = phi i32 [ %.pre45, %19 ], [ %15, %14 ]
  %24 = phi ptr [ %20, %19 ], [ %16, %14 ]
  %indvars.iv.next = add nuw nsw i64 %indvars.iv, 1
  %25 = sext i32 %23 to i64
  %26 = icmp slt i64 %indvars.iv.next, %25
  br i1 %26, label %14, label %._crit_edge, !llvm.loop !45

._crit_edge:                                      ; preds = %22, %9
  %27 = getelementptr inbounds nuw i8, ptr %0, i64 32
  %28 = load ptr, ptr %27, align 8, !tbaa !26
  %.not37 = icmp eq ptr %28, null
  br i1 %.not37, label %30, label %29

29:                                               ; preds = %._crit_edge
  tail call void @free(ptr noundef nonnull %28) #19
  store ptr null, ptr %27, align 8, !tbaa !26
  br label %30

30:                                               ; preds = %._crit_edge, %29
  %31 = getelementptr inbounds nuw i8, ptr %0, i64 16
  %32 = load ptr, ptr %31, align 8, !tbaa !40
  %.not38 = icmp eq ptr %32, null
  br i1 %.not38, label %34, label %33

33:                                               ; preds = %30
  tail call void @free(ptr noundef nonnull %32) #19
  store ptr null, ptr %31, align 8, !tbaa !40
  br label %34

34:                                               ; preds = %30, %33
  %35 = getelementptr inbounds nuw i8, ptr %0, i64 40
  %36 = load ptr, ptr %35, align 8, !tbaa !19
  %.not39 = icmp eq ptr %36, null
  br i1 %.not39, label %38, label %37

37:                                               ; preds = %34
  tail call void @free(ptr noundef nonnull %36) #19
  store ptr null, ptr %35, align 8, !tbaa !19
  br label %38

38:                                               ; preds = %34, %37
  %39 = getelementptr inbounds nuw i8, ptr %0, i64 24
  %40 = load ptr, ptr %39, align 8, !tbaa !41
  %.not40 = icmp eq ptr %40, null
  br i1 %.not40, label %42, label %41

41:                                               ; preds = %38
  tail call void @free(ptr noundef nonnull %40) #19
  br label %42

42:                                               ; preds = %38, %41
  tail call void @free(ptr noundef nonnull %0) #19
  ret void
}